target datalayout = "e-m:e-p270:32:32-p271:32:32-p272:64:64-i64:64-i128:128-f80:128-n8:16:32:64-S128"
target triple = "x86_64-pc-linux-gnu"

%struct.Curl_easy = type { i32, i64, i64, ptr, %struct.Curl_llist_node, %struct.Curl_llist_node, i32, i32, %struct.Curl_message, %struct.easy_pollset, %struct.Names, ptr, ptr, ptr, ptr, %struct.SingleRequest, %struct.UserDefined, ptr, ptr, ptr, %struct.Progress, %struct.UrlState, ptr, %struct.PureInfo, %struct.curl_tlssessioninfo }
%struct.Curl_llist_node = type { ptr, ptr, ptr, ptr }
%struct.Curl_message = type { %struct.Curl_llist_node, %struct.CURLMsg }
%struct.CURLMsg = type { i32, ptr, %union.anon }
%union.anon = type { ptr }
%struct.easy_pollset = type { [5 x i32], i32, [5 x i8] }
%struct.Names = type { ptr, i32 }
%struct.SingleRequest = type <{ i64, i64, i64, i64, %struct.curltime, i32, i32, i32, i32, i64, i32, i32, i8, i8, [2 x i8], i32, ptr, ptr, %struct.bufq, i64, i64, ptr, ptr, %union.anon.0, ptr, i8, i32, [3 x i8] }>
%struct.curltime = type { i64, i32 }
%struct.bufq = type { ptr, ptr, ptr, ptr, i64, i64, i64, i32 }
%union.anon.0 = type { ptr }
%struct.UserDefined = type <{ ptr, ptr, ptr, ptr, ptr, ptr, i64, i64, i64, ptr, ptr, i64, ptr, ptr, ptr, ptr, ptr, ptr, ptr, ptr, ptr, ptr, ptr, ptr, ptr, ptr, ptr, ptr, ptr, ptr, ptr, ptr, ptr, ptr, ptr, i64, i64, i64, i64, i64, i64, i64, i64, i64, ptr, ptr, %struct.curl_mimepart, ptr, ptr, ptr, i64, %struct.ssl_config_data, %struct.ssl_config_data, ptr, i16, i8, i8, %struct.ssl_general_config, i32, i32, i32, [4 x i8], ptr, ptr, i64, i32, i8, i8, i8, i8, ptr, ptr, ptr, i32, [4 x i8], [74 x ptr], [8 x ptr], i32, i32, i32, [4 x i8], ptr, i32, [4 x i8], ptr, ptr, ptr, ptr, ptr, i32, i32, i32, i32, i32, i32, i32, i32, i64, ptr, ptr, i64, ptr, i64, ptr, ptr, ptr, ptr, i32, i16, i16, i16, i8, i8, i8, i8, i8, i8, i8, i8, i64, [6 x i8] }>
%struct.curl_mimepart = type { ptr, ptr, i32, i32, ptr, ptr, ptr, ptr, ptr, ptr, ptr, ptr, ptr, ptr, ptr, i64, %struct.mime_state, ptr, %struct.mime_encoder_state, i64 }
%struct.mime_state = type { i32, ptr, i64 }
%struct.mime_encoder_state = type { i64, i64, i64, [256 x i8] }
%struct.ssl_config_data = type { %struct.ssl_primary_config, i64, ptr, ptr, ptr, ptr, ptr, ptr, ptr, i16 }
%struct.ssl_primary_config = type { ptr, ptr, ptr, ptr, ptr, ptr, ptr, ptr, ptr, ptr, ptr, ptr, ptr, ptr, i8, i32, i8, i8 }
%struct.ssl_general_config = type { i32 }
%struct.Progress = type { i64, %struct.pgrs_dir, %struct.pgrs_dir, i64, i64, i32, i32, i64, i64, i64, i64, i64, i64, i64, i64, i64, %struct.curltime, %struct.curltime, %struct.curltime, %struct.curltime, %struct.curltime, [6 x i64], [6 x %struct.curltime], i32, i8 }
%struct.pgrs_dir = type { i64, i64, i64, %struct.pgrs_measure }
%struct.pgrs_measure = type { %struct.curltime, i64 }
%struct.UrlState = type { %struct.curltime, i64, i64, %struct.dynbuf, ptr, i64, ptr, i32, i32, i32, ptr, i32, i64, i32, ptr, %struct.digestdata, %struct.digestdata, %struct.auth, %struct.auth, %struct.Curl_async, ptr, i8, %struct.curltime, %struct.Curl_tree, %struct.Curl_llist, [15 x %struct.time_node], ptr, ptr, i64, i64, i64, i64, [32 x i8], i64, ptr, ptr, ptr, %struct.urlpieces, ptr, ptr, ptr, ptr, ptr, i64, %struct.dynbuf, %struct.Curl_llist, [2 x %struct.curl_header], ptr, i32, ptr, ptr, %struct.store_netrc, %struct.dynamically_allocated_data, i8, i8, i8, i8, i32 }
%struct.digestdata = type { ptr, ptr, ptr, ptr, ptr, ptr, i32, i8, i8 }
%struct.auth = type { i64, i64, i64, i8 }
%struct.Curl_async = type { ptr, ptr, ptr, ptr, i32, i32, i8 }
%struct.Curl_tree = type { ptr, ptr, ptr, ptr, %struct.curltime, ptr }
%struct.time_node = type { %struct.Curl_llist_node, %struct.curltime, i32 }
%struct.urlpieces = type { ptr, ptr, ptr, ptr, ptr, ptr, ptr, ptr }
%struct.dynbuf = type { ptr, i64, i64, i64 }
%struct.Curl_llist = type { ptr, ptr, ptr, i64 }
%struct.curl_header = type { ptr, ptr, i64, i64, i32, ptr }
%struct.store_netrc = type { %struct.dynbuf, ptr, i8 }
%struct.dynamically_allocated_data = type { ptr, ptr, ptr, ptr, ptr, ptr, ptr, ptr, ptr, ptr, ptr, ptr, ptr, ptr }
%struct.PureInfo = type { i32, i32, i32, i64, i64, i64, i64, i64, i64, i64, ptr, ptr, i64, i32, %struct.ip_quadruple, i32, ptr, i32, %struct.curl_certinfo, i32, i8 }
%struct.ip_quadruple = type { [46 x i8], [46 x i8], i32, i32 }
%struct.curl_certinfo = type { i32, ptr }
%struct.curl_tlssessioninfo = type { i32, ptr }
%struct.connectdata = type { %struct.Curl_llist_node, ptr, ptr, i64, ptr, i64, ptr, ptr, %struct.hostname, ptr, ptr, %struct.hostname, %struct.proxy_info, %struct.proxy_info, %struct.ip_quadruple, %struct.ip_quadruple, ptr, ptr, ptr, ptr, ptr, %struct.curltime, %struct.curltime, %struct.curltime, [2 x i32], [2 x ptr], [2 x ptr], [2 x ptr], %struct.anon, %struct.easy_pollset, %struct.ssl_primary_config, %struct.ssl_primary_config, %struct.ConnectBits, ptr, ptr, %struct.curltime, i32, i32, %struct.Curl_llist, i32, i32, %struct.ntlmdata, %struct.ntlmdata, %union.anon.1, ptr, ptr, i16, i32, i32, i32, i32, i16, i16, i8, i8, i8, i8, i8, i8, i8 }
%struct.hostname = type { ptr, ptr, ptr, ptr }
%struct.proxy_info = type { %struct.hostname, i32, i8, ptr, ptr }
%struct.anon = type { [2 x %struct.curltime], i32 }
%struct.ConnectBits = type { i64 }
%struct.ntlmdata = type { i32, [8 x i8], i32, ptr }
%union.anon.1 = type { %struct.ftp_conn }
%struct.ftp_conn = type { %struct.pingpong, ptr, ptr, ptr, ptr, ptr, ptr, ptr, i8, i64, ptr, i64, i32, i32, i32, i32, i32, i16, i8, i8, i8, i8, i8 }
%struct.pingpong = type { i64, i8, ptr, i64, i64, %struct.curltime, i64, %struct.dynbuf, %struct.dynbuf, i64, i64, ptr, ptr }
%struct.curl_trc_feat = type { ptr, i32 }

@.str.140 = private unnamed_addr constant [27 x i8] c"Ignoring the response-body\00", align 1
@.str.141 = private unnamed_addr constant [42 x i8] c"The entire document is already downloaded\00", align 1
@.str.142 = private unnamed_addr constant [65 x i8] c"HTTP server does not seem to support byte ranges. Cannot resume.\00", align 1
@.str.143 = private unnamed_addr constant [30 x i8] c"Simulate an HTTP 304 response\00", align 1

; Function Attrs: nounwind uwtable
define internal i32 @http_firstwrite(ptr noundef %0) #0 {
  %2 = alloca i32, align 4
  %3 = alloca ptr, align 8
  %4 = alloca ptr, align 8
  %5 = alloca ptr, align 8
  %6 = alloca i32, align 4
  store ptr %0, ptr %3, align 8, !tbaa !3
  call void @llvm.lifetime.start.p0(i64 8, ptr %4) #7
  %7 = load ptr, ptr %3, align 8, !tbaa !3
  %8 = getelementptr inbounds nuw %struct.Curl_easy, ptr %7, i32 0, i32 3
  %9 = load ptr, ptr %8, align 8, !tbaa !81
  store ptr %9, ptr %4, align 8, !tbaa !8
  call void @llvm.lifetime.start.p0(i64 8, ptr %5) #7
  %10 = load ptr, ptr %3, align 8, !tbaa !3
  %11 = getelementptr inbounds nuw %struct.Curl_easy, ptr %10, i32 0, i32 15
  store ptr %11, ptr %5, align 8, !tbaa !225
  %12 = load ptr, ptr %3, align 8, !tbaa !3
  %13 = getelementptr inbounds nuw %struct.Curl_easy, ptr %12, i32 0, i32 15
  %14 = getelementptr inbounds nuw %struct.SingleRequest, ptr %13, i32 0, i32 22
  %15 = load ptr, ptr %14, align 8, !tbaa !157
  %16 = icmp ne ptr %15, null
  br i1 %16, label %17, label %72

17:                                               ; preds = %1
  %18 = load ptr, ptr %4, align 8, !tbaa !8
  %19 = getelementptr inbounds nuw %struct.connectdata, ptr %18, i32 0, i32 32
  %20 = load i64, ptr %19, align 8
  %21 = lshr i64 %20, 5
  %22 = and i64 %21, 1
  %23 = trunc i64 %22 to i32
  %24 = icmp ne i32 %23, 0
  br i1 %24, label %25, label %35

25:                                               ; preds = %17
  %26 = load ptr, ptr %5, align 8, !tbaa !225
  %27 = getelementptr inbounds nuw %struct.SingleRequest, ptr %26, i32 0, i32 11
  %28 = load i32, ptr %27, align 4, !tbaa !293
  %29 = and i32 %28, -2
  store i32 %29, ptr %27, align 4, !tbaa !293
  %30 = load ptr, ptr %5, align 8, !tbaa !225
  %31 = getelementptr inbounds nuw %struct.SingleRequest, ptr %30, i32 0, i32 26
  %32 = load i32, ptr %31, align 1
  %33 = and i32 %32, -3
  %34 = or i32 %33, 2
  store i32 %34, ptr %31, align 1
  store i32 0, ptr %2, align 4
  store i32 1, ptr %6, align 4
  br label %214

35:                                               ; preds = %17
  %36 = load ptr, ptr %5, align 8, !tbaa !225
  %37 = getelementptr inbounds nuw %struct.SingleRequest, ptr %36, i32 0, i32 26
  %38 = load i32, ptr %37, align 1
  %39 = and i32 %38, -1025
  %40 = or i32 %39, 1024
  store i32 %40, ptr %37, align 1
  br label %41

41:                                               ; preds = %35
  %42 = load ptr, ptr %3, align 8, !tbaa !3
  %43 = icmp ne ptr %42, null
  br i1 %43, label %44, label %69

44:                                               ; preds = %41
  %45 = load ptr, ptr %3, align 8, !tbaa !3
  %46 = getelementptr inbounds nuw %struct.Curl_easy, ptr %45, i32 0, i32 16
  %47 = getelementptr inbounds nuw %struct.UserDefined, ptr %46, i32 0, i32 119
  %48 = load i64, ptr %47, align 2
  %49 = lshr i64 %48, 31
  %50 = and i64 %49, 1
  %51 = trunc i64 %50 to i32
  %52 = icmp ne i32 %51, 0
  br i1 %52, label %53, label %69

53:                                               ; preds = %44
  %54 = load ptr, ptr %3, align 8, !tbaa !3
  %55 = getelementptr inbounds nuw %struct.Curl_easy, ptr %54, i32 0, i32 21
  %56 = getelementptr inbounds nuw %struct.UrlState, ptr %55, i32 0, i32 50
  %57 = load ptr, ptr %56, align 8, !tbaa !129
  %58 = icmp ne ptr %57, null
  br i1 %58, label %59, label %67

59:                                               ; preds = %53
  %60 = load ptr, ptr %3, align 8, !tbaa !3
  %61 = getelementptr inbounds nuw %struct.Curl_easy, ptr %60, i32 0, i32 21
  %62 = getelementptr inbounds nuw %struct.UrlState, ptr %61, i32 0, i32 50
  %63 = load ptr, ptr %62, align 8, !tbaa !129
  %64 = getelementptr inbounds nuw %struct.curl_trc_feat, ptr %63, i32 0, i32 1
  %65 = load i32, ptr %64, align 8, !tbaa !130
  %66 = icmp sge i32 %65, 1
  br i1 %66, label %67, label %69

67:                                               ; preds = %59, %53
  %68 = load ptr, ptr %3, align 8, !tbaa !3
  call void (ptr, ptr, ...) @Curl_infof(ptr noundef %68, ptr noundef @.str.140)
  br label %69

69:                                               ; preds = %67, %59, %44, %41
  br label %70

70:                                               ; preds = %69
  br label %71

71:                                               ; preds = %70
  br label %72

72:                                               ; preds = %71, %1
  %73 = load ptr, ptr %3, align 8, !tbaa !3
  %74 = getelementptr inbounds nuw %struct.Curl_easy, ptr %73, i32 0, i32 21
  %75 = getelementptr inbounds nuw %struct.UrlState, ptr %74, i32 0, i32 28
  %76 = load i64, ptr %75, align 8, !tbaa !167
  %77 = icmp ne i64 %76, 0
  br i1 %77, label %78, label %152

78:                                               ; preds = %72
  %79 = load ptr, ptr %5, align 8, !tbaa !225
  %80 = getelementptr inbounds nuw %struct.SingleRequest, ptr %79, i32 0, i32 26
  %81 = load i32, ptr %80, align 1
  %82 = lshr i32 %81, 2
  %83 = and i32 %82, 1
  %84 = icmp ne i32 %83, 0
  br i1 %84, label %152, label %85

85:                                               ; preds = %78
  %86 = load ptr, ptr %3, align 8, !tbaa !3
  %87 = getelementptr inbounds nuw %struct.Curl_easy, ptr %86, i32 0, i32 21
  %88 = getelementptr inbounds nuw %struct.UrlState, ptr %87, i32 0, i32 55
  %89 = load i8, ptr %88, align 2, !tbaa !139
  %90 = zext i8 %89 to i32
  %91 = icmp eq i32 %90, 0
  br i1 %91, label %92, label %152

92:                                               ; preds = %85
  %93 = load ptr, ptr %5, align 8, !tbaa !225
  %94 = getelementptr inbounds nuw %struct.SingleRequest, ptr %93, i32 0, i32 26
  %95 = load i32, ptr %94, align 1
  %96 = lshr i32 %95, 10
  %97 = and i32 %96, 1
  %98 = icmp ne i32 %97, 0
  br i1 %98, label %152, label %99

99:                                               ; preds = %92
  %100 = load ptr, ptr %5, align 8, !tbaa !225
  %101 = getelementptr inbounds nuw %struct.SingleRequest, ptr %100, i32 0, i32 0
  %102 = load i64, ptr %101, align 8, !tbaa !295
  %103 = load ptr, ptr %3, align 8, !tbaa !3
  %104 = getelementptr inbounds nuw %struct.Curl_easy, ptr %103, i32 0, i32 21
  %105 = getelementptr inbounds nuw %struct.UrlState, ptr %104, i32 0, i32 28
  %106 = load i64, ptr %105, align 8, !tbaa !167
  %107 = icmp eq i64 %102, %106
  br i1 %107, label %108, label %150

108:                                              ; preds = %99
  br label %109

109:                                              ; preds = %108
  %110 = load ptr, ptr %3, align 8, !tbaa !3
  %111 = icmp ne ptr %110, null
  br i1 %111, label %112, label %137

112:                                              ; preds = %109
  %113 = load ptr, ptr %3, align 8, !tbaa !3
  %114 = getelementptr inbounds nuw %struct.Curl_easy, ptr %113, i32 0, i32 16
  %115 = getelementptr inbounds nuw %struct.UserDefined, ptr %114, i32 0, i32 119
  %116 = load i64, ptr %115, align 2
  %117 = lshr i64 %116, 31
  %118 = and i64 %117, 1
  %119 = trunc i64 %118 to i32
  %120 = icmp ne i32 %119, 0
  br i1 %120, label %121, label %137

121:                                              ; preds = %112
  %122 = load ptr, ptr %3, align 8, !tbaa !3
  %123 = getelementptr inbounds nuw %struct.Curl_easy, ptr %122, i32 0, i32 21
  %124 = getelementptr inbounds nuw %struct.UrlState, ptr %123, i32 0, i32 50
  %125 = load ptr, ptr %124, align 8, !tbaa !129
  %126 = icmp ne ptr %125, null
  br i1 %126, label %127, label %135

127:                                              ; preds = %121
  %128 = load ptr, ptr %3, align 8, !tbaa !3
  %129 = getelementptr inbounds nuw %struct.Curl_easy, ptr %128, i32 0, i32 21
  %130 = getelementptr inbounds nuw %struct.UrlState, ptr %129, i32 0, i32 50
  %131 = load ptr, ptr %130, align 8, !tbaa !129
  %132 = getelementptr inbounds nuw %struct.curl_trc_feat, ptr %131, i32 0, i32 1
  %133 = load i32, ptr %132, align 8, !tbaa !130
  %134 = icmp sge i32 %133, 1
  br i1 %134, label %135, label %137

135:                                              ; preds = %127, %121
  %136 = load ptr, ptr %3, align 8, !tbaa !3
  call void (ptr, ptr, ...) @Curl_infof(ptr noundef %136, ptr noundef @.str.141)
  br label %137

137:                                              ; preds = %135, %127, %112, %109
  br label %138

138:                                              ; preds = %137
  br label %139

139:                                              ; preds = %138
  %140 = load ptr, ptr %4, align 8, !tbaa !8
  call void @Curl_conncontrol(ptr noundef %140, i32 noundef 2)
  %141 = load ptr, ptr %5, align 8, !tbaa !225
  %142 = getelementptr inbounds nuw %struct.SingleRequest, ptr %141, i32 0, i32 11
  %143 = load i32, ptr %142, align 4, !tbaa !293
  %144 = and i32 %143, -2
  store i32 %144, ptr %142, align 4, !tbaa !293
  %145 = load ptr, ptr %5, align 8, !tbaa !225
  %146 = getelementptr inbounds nuw %struct.SingleRequest, ptr %145, i32 0, i32 26
  %147 = load i32, ptr %146, align 1
  %148 = and i32 %147, -3
  %149 = or i32 %148, 2
  store i32 %149, ptr %146, align 1
  store i32 0, ptr %2, align 4
  store i32 1, ptr %6, align 4
  br label %214

150:                                              ; preds = %99
  %151 = load ptr, ptr %3, align 8, !tbaa !3
  call void (ptr, ptr, ...) @Curl_failf(ptr noundef %151, ptr noundef @.str.142)
  store i32 33, ptr %2, align 4
  store i32 1, ptr %6, align 4
  br label %214

152:                                              ; preds = %92, %85, %78, %72
  %153 = load ptr, ptr %3, align 8, !tbaa !3
  %154 = getelementptr inbounds nuw %struct.Curl_easy, ptr %153, i32 0, i32 16
  %155 = getelementptr inbounds nuw %struct.UserDefined, ptr %154, i32 0, i32 115
  %156 = load i8, ptr %155, align 2, !tbaa !182
  %157 = zext i8 %156 to i32
  %158 = icmp ne i32 %157, 0
  br i1 %158, label %159, label %213

159:                                              ; preds = %152
  %160 = load ptr, ptr %3, align 8, !tbaa !3
  %161 = getelementptr inbounds nuw %struct.Curl_easy, ptr %160, i32 0, i32 21
  %162 = getelementptr inbounds nuw %struct.UrlState, ptr %161, i32 0, i32 27
  %163 = load ptr, ptr %162, align 8, !tbaa !206
  %164 = icmp ne ptr %163, null
  br i1 %164, label %213, label %165

165:                                              ; preds = %159
  %166 = load ptr, ptr %3, align 8, !tbaa !3
  %167 = load ptr, ptr %5, align 8, !tbaa !225
  %168 = getelementptr inbounds nuw %struct.SingleRequest, ptr %167, i32 0, i32 20
  %169 = load i64, ptr %168, align 8, !tbaa !306
  %170 = call zeroext i1 @Curl_meets_timecondition(ptr noundef %166, i64 noundef %169)
  br i1 %170, label %212, label %171

171:                                              ; preds = %165
  %172 = load ptr, ptr %5, align 8, !tbaa !225
  %173 = getelementptr inbounds nuw %struct.SingleRequest, ptr %172, i32 0, i32 26
  %174 = load i32, ptr %173, align 1
  %175 = and i32 %174, -3
  %176 = or i32 %175, 2
  store i32 %176, ptr %173, align 1
  %177 = load ptr, ptr %3, align 8, !tbaa !3
  %178 = getelementptr inbounds nuw %struct.Curl_easy, ptr %177, i32 0, i32 23
  %179 = getelementptr inbounds nuw %struct.PureInfo, ptr %178, i32 0, i32 0
  store i32 304, ptr %179, align 8, !tbaa !138
  br label %180

180:                                              ; preds = %171
  %181 = load ptr, ptr %3, align 8, !tbaa !3
  %182 = icmp ne ptr %181, null
  br i1 %182, label %183, label %208

183:                                              ; preds = %180
  %184 = load ptr, ptr %3, align 8, !tbaa !3
  %185 = getelementptr inbounds nuw %struct.Curl_easy, ptr %184, i32 0, i32 16
  %186 = getelementptr inbounds nuw %struct.UserDefined, ptr %185, i32 0, i32 119
  %187 = load i64, ptr %186, align 2
  %188 = lshr i64 %187, 31
  %189 = and i64 %188, 1
  %190 = trunc i64 %189 to i32
  %191 = icmp ne i32 %190, 0
  br i1 %191, label %192, label %208

192:                                              ; preds = %183
  %193 = load ptr, ptr %3, align 8, !tbaa !3
  %194 = getelementptr inbounds nuw %struct.Curl_easy, ptr %193, i32 0, i32 21
  %195 = getelementptr inbounds nuw %struct.UrlState, ptr %194, i32 0, i32 50
  %196 = load ptr, ptr %195, align 8, !tbaa !129
  %197 = icmp ne ptr %196, null
  br i1 %197, label %198, label %206

198:                                              ; preds = %192
  %199 = load ptr, ptr %3, align 8, !tbaa !3
  %200 = getelementptr inbounds nuw %struct.Curl_easy, ptr %199, i32 0, i32 21
  %201 = getelementptr inbounds nuw %struct.UrlState, ptr %200, i32 0, i32 50
  %202 = load ptr, ptr %201, align 8, !tbaa !129
  %203 = getelementptr inbounds nuw %struct.curl_trc_feat, ptr %202, i32 0, i32 1
  %204 = load i32, ptr %203, align 8, !tbaa !130
  %205 = icmp sge i32 %204, 1
  br i1 %205, label %206, label %208

206:                                              ; preds = %198, %192
  %207 = load ptr, ptr %3, align 8, !tbaa !3
  call void (ptr, ptr, ...) @Curl_infof(ptr noundef %207, ptr noundef @.str.143)
  br label %208

208:                                              ; preds = %206, %198, %183, %180
  br label %209

209:                                              ; preds = %208
  br label %210

210:                                              ; preds = %209
  %211 = load ptr, ptr %4, align 8, !tbaa !8
  call void @Curl_conncontrol(ptr noundef %211, i32 noundef 2)
  store i32 0, ptr %2, align 4
  store i32 1, ptr %6, align 4
  br label %214

212:                                              ; preds = %165
  br label %213

213:                                              ; preds = %212, %159, %152
  store i32 0, ptr %2, align 4
  store i32 1, ptr %6, align 4
  br label %214

214:                                              ; preds = %213, %210, %150, %139, %25
  call void @llvm.lifetime.end.p0(i64 8, ptr %5) #7
  call void @llvm.lifetime.end.p0(i64 8, ptr %4) #7
  %215 = load i32, ptr %2, align 4
  ret i32 %215
}